; Function Attrs: mustprogress uwtable
define hidden noundef zeroext i1 @_ZNK4cvc58internal6theory11quantifiers25QuantifiersBoundInference16getBoundElementsEPNS1_14RepSetIteratorEbNS0_12NodeTemplateILb1EEES7_RSt6vectorIS7_SaIS7_EE(ptr noundef nonnull readonly align 8 captures(none) dereferenceable(72) %0, ptr noundef %1, i1 noundef zeroext %2, ptr noundef readonly captures(none) %3, ptr noundef readonly captures(none) %4, ptr noundef nonnull align 8 dereferenceable(24) %5) local_unnamed_addr #4 align 2 personality ptr @__gxx_personality_v0 {
  %7 = alloca %"class.cvc5::internal::NodeTemplate", align 8
  %8 = alloca %"class.cvc5::internal::NodeTemplate", align 8
  %9 = getelementptr inbounds nuw i8, ptr %0, i64 64
  %10 = load ptr, ptr %9, align 8, !tbaa !23
  %.not = icmp eq ptr %10, null
  br i1 %.not, label %_ZN4cvc58internal12NodeTemplateILb1EED2Ev.exit12, label %11

11:                                               ; preds = %6
  %12 = load ptr, ptr %3, align 8, !tbaa !42
  store ptr %12, ptr %7, align 8, !tbaa !42
  %13 = load i64, ptr %12, align 8
  %14 = lshr i64 %13, 40
  %15 = trunc nuw nsw i64 %14 to i32
  %16 = and i32 %15, 1048575
  %17 = icmp samesign ult i32 %16, 1048574
  br i1 %17, label %18, label %23, !prof !35

18:                                               ; preds = %11
  %19 = add i64 %13, 1099511627776
  %20 = and i64 %19, 1152920405095219200
  %21 = and i64 %13, -1152920405095219201
  %22 = or disjoint i64 %20, %21
  store i64 %22, ptr %12, align 8
  br label %_ZN4cvc58internal12NodeTemplateILb1EEC2ERKS2_.exit

23:                                               ; preds = %11
  %24 = icmp eq i32 %16, 1048574
  br i1 %24, label %25, label %_ZN4cvc58internal12NodeTemplateILb1EEC2ERKS2_.exit, !prof !36

25:                                               ; preds = %23
  %26 = or i64 %13, 1152920405095219200
  store i64 %26, ptr %12, align 8
  tail call void @_ZN4cvc58internal4expr9NodeValue20markRefCountMaxedOutEv(ptr noundef nonnull align 8 dereferenceable(24) %12)
  br label %_ZN4cvc58internal12NodeTemplateILb1EEC2ERKS2_.exit

_ZN4cvc58internal12NodeTemplateILb1EEC2ERKS2_.exit: ; preds = %18, %23, %25
  %27 = load ptr, ptr %4, align 8, !tbaa !42
  store ptr %27, ptr %8, align 8, !tbaa !42
  %28 = load i64, ptr %27, align 8
  %29 = lshr i64 %28, 40
  %30 = trunc nuw nsw i64 %29 to i32
  %31 = and i32 %30, 1048575
  %32 = icmp samesign ult i32 %31, 1048574
  br i1 %32, label %33, label %38, !prof !35

33:                                               ; preds = %_ZN4cvc58internal12NodeTemplateILb1EEC2ERKS2_.exit
  %34 = add i64 %28, 1099511627776
  %35 = and i64 %34, 1152920405095219200
  %36 = and i64 %28, -1152920405095219201
  %37 = or disjoint i64 %35, %36
  store i64 %37, ptr %27, align 8
  br label %_ZN4cvc58internal12NodeTemplateILb1EEC2ERKS2_.exit10

38:                                               ; preds = %_ZN4cvc58internal12NodeTemplateILb1EEC2ERKS2_.exit
  %39 = icmp eq i32 %31, 1048574
  br i1 %39, label %40, label %_ZN4cvc58internal12NodeTemplateILb1EEC2ERKS2_.exit10, !prof !36

40:                                               ; preds = %38
  %41 = or i64 %28, 1152920405095219200
  store i64 %41, ptr %27, align 8
  invoke void @_ZN4cvc58internal4expr9NodeValue20markRefCountMaxedOutEv(ptr noundef nonnull align 8 dereferenceable(24) %27)
          to label %_ZN4cvc58internal12NodeTemplateILb1EEC2ERKS2_.exit10 unwind label %70

_ZN4cvc58internal12NodeTemplateILb1EEC2ERKS2_.exit10: ; preds = %38, %33, %40
  %42 = invoke noundef zeroext i1 @_ZN4cvc58internal6theory11quantifiers15BoundedIntegers16getBoundElementsEPNS1_14RepSetIteratorEbNS0_12NodeTemplateILb1EEES7_RSt6vectorIS7_SaIS7_EE(ptr noundef nonnull align 8 dereferenceable(768) %10, ptr noundef %1, i1 noundef zeroext %2, ptr noundef nonnull %7, ptr noundef nonnull %8, ptr noundef nonnull align 8 dereferenceable(24) %5)
          to label %43 unwind label %72

43:                                               ; preds = %_ZN4cvc58internal12NodeTemplateILb1EEC2ERKS2_.exit10
  %44 = load ptr, ptr %8, align 8, !tbaa !42
  %45 = load i64, ptr %44, align 8
  %46 = and i64 %45, 1152920405095219200
  %.not.i.i = icmp eq i64 %46, 1152920405095219200
  br i1 %.not.i.i, label %_ZN4cvc58internal12NodeTemplateILb1EED2Ev.exit, label %47, !prof !36

47:                                               ; preds = %43
  %48 = add i64 %45, 1152920405095219200
  %49 = and i64 %48, 1152920405095219200
  %50 = and i64 %45, -1152920405095219201
  %51 = or disjoint i64 %49, %50
  store i64 %51, ptr %44, align 8
  %52 = icmp eq i64 %49, 0
  br i1 %52, label %53, label %_ZN4cvc58internal12NodeTemplateILb1EED2Ev.exit, !prof !36

53:                                               ; preds = %47
  invoke void @_ZN4cvc58internal4expr9NodeValue15markForDeletionEv(ptr noundef nonnull align 8 dereferenceable(24) %44)
          to label %_ZN4cvc58internal12NodeTemplateILb1EED2Ev.exit unwind label %54

54:                                               ; preds = %53
  %55 = landingpad { ptr, i32 }
          catch ptr null
  %56 = extractvalue { ptr, i32 } %55, 0
  call void @__clang_call_terminate(ptr %56) #21
  unreachable

_ZN4cvc58internal12NodeTemplateILb1EED2Ev.exit:   ; preds = %43, %47, %53
  %57 = load ptr, ptr %7, align 8, !tbaa !42
  %58 = load i64, ptr %57, align 8
  %59 = and i64 %58, 1152920405095219200
  %.not.i.i11 = icmp eq i64 %59, 1152920405095219200
  br i1 %.not.i.i11, label %_ZN4cvc58internal12NodeTemplateILb1EED2Ev.exit12, label %60, !prof !36

60:                                               ; preds = %_ZN4cvc58internal12NodeTemplateILb1EED2Ev.exit
  %61 = add i64 %58, 1152920405095219200
  %62 = and i64 %61, 1152920405095219200
  %63 = and i64 %58, -1152920405095219201
  %64 = or disjoint i64 %62, %63
  store i64 %64, ptr %57, align 8
  %65 = icmp eq i64 %62, 0
  br i1 %65, label %66, label %_ZN4cvc58internal12NodeTemplateILb1EED2Ev.exit12, !prof !36

66:                                               ; preds = %60
  invoke void @_ZN4cvc58internal4expr9NodeValue15markForDeletionEv(ptr noundef nonnull align 8 dereferenceable(24) %57)
          to label %_ZN4cvc58internal12NodeTemplateILb1EED2Ev.exit12 unwind label %67

67:                                               ; preds = %66
  %68 = landingpad { ptr, i32 }
          catch ptr null
  %69 = extractvalue { ptr, i32 } %68, 0
  call void @__clang_call_terminate(ptr %69) #21
  unreachable

70:                                               ; preds = %40
  %71 = landingpad { ptr, i32 }
          cleanup
  br label %74

72:                                               ; preds = %_ZN4cvc58internal12NodeTemplateILb1EEC2ERKS2_.exit10
  %73 = landingpad { ptr, i32 }
          cleanup
  call void @_ZN4cvc58internal12NodeTemplateILb1EED2Ev(ptr noundef nonnull align 8 dereferenceable(8) %8) #22
  br label %74

74:                                               ; preds = %72, %70
  %.pn = phi { ptr, i32 } [ %73, %72 ], [ %71, %70 ]
  call void @_ZN4cvc58internal12NodeTemplateILb1EED2Ev(ptr noundef nonnull align 8 dereferenceable(8) %7) #22
  resume { ptr, i32 } %.pn

_ZN4cvc58internal12NodeTemplateILb1EED2Ev.exit12: ; preds = %66, %60, %_ZN4cvc58internal12NodeTemplateILb1EED2Ev.exit, %6
  %.07 = phi i1 [ false, %6 ], [ %42, %_ZN4cvc58internal12NodeTemplateILb1EED2Ev.exit ], [ %42, %60 ], [ %42, %66 ]
  ret i1 %.07
}